Certificate:
    Data:
        Version: 3 (0x2)
        Serial Number: 1 (0x1)
        Signature Algorithm: sha256WithRSAEncryption
        Issuer: CN=devcert
        Validity
            Not Before: Jun  6 06:56:53 2023 GMT
            Not After : Sep  8 06:56:53 2025 GMT
        Subject: CN=localhost
        Subject Public Key Info:
            Public Key Algorithm: rsaEncryption
                Public-Key: (2048 bit)
                Modulus:
                    00:8b:6a:94:ad:3a:98:c8:e6:9a:46:fb:cf:ed:56:
                    17:51:05:ed:23:b0:f8:8a:5b:3b:dd:f0:9a:71:1b:
                    34:51:db:1b:91:0d:b0:98:0b:61:e3:66:e2:3a:9b:
                    48:86:9e:7e:68:05:f9:e3:9c:68:b1:8a:1c:0f:8b:
                    5b:2e:6f:89:bf:cd:be:ef:33:b6:71:c2:e3:cb:2c:
                    6d:2e:bf:8b:14:ed:49:7c:d7:6e:f3:6e:1e:10:5c:
                    97:b7:69:f3:9a:c2:8e:f3:41:80:fd:e5:56:82:90:
                    64:57:69:91:46:60:ac:e7:d3:e6:3e:6a:05:96:bf:
                    20:c0:2a:0f:44:66:d8:4d:16:37:b1:77:3d:28:ea:
                    8d:ee:3d:8e:38:4f:72:eb:a8:ce:e0:1d:62:4f:03:
                    b4:d6:72:ab:fb:48:14:cb:12:af:f8:d6:cc:05:60:
                    5f:fc:0a:7d:b7:8a:74:b5:5e:12:69:c4:0f:3a:c7:
                    7d:78:dd:55:ed:22:4d:c2:4e:3a:47:32:15:1e:b4:
                    49:bf:c8:69:3e:45:03:b4:c2:8d:7c:98:41:b4:17:
                    3c:c6:83:a9:7c:a8:f4:82:69:3b:54:af:3d:aa:7b:
                    f1:a1:8e:7c:37:d7:8d:3c:c4:9c:97:9b:b8:9e:6c:
                    cf:14:f8:b3:9a:54:16:0e:ed:22:2d:d7:bd:eb:94:
                    50:7b
                Exponent: 65537 (0x10001)
        X509v3 extensions:
            X509v3 Basic Constraints: critical
                CA:FALSE
            X509v3 Subject Key Identifier: 
                39:DF:47:76:38:5A:EC:3B:31:95:72:A7:5C:89:60:3E:91:95:9C:E8
            X509v3 Authority Key Identifier: 
                keyid:D3:6C:C8:01:1C:BE:CE:34:2D:8F:94:7B:DD:A5:F6:80:06:0C:A1:3C
                DirName:/CN=devcert
                serial:62:45:59:43:E2:67:99:78:46:34:0B:90:30:96:AA:F5:9C:32:31:6C
            X509v3 Key Usage: critical
                Digital Signature, Key Encipherment
            X509v3 Extended Key Usage: 
                TLS Web Server Authentication
            X509v3 Subject Alternative Name: 
                DNS:localhost, DNS:*.localhost
    Signature Algorithm: sha256WithRSAEncryption
    Signature Value:
        c0:d4:c9:25:41:f7:90:9f:a0:23:6b:07:67:e5:1d:1a:ce:27:
        8d:18:d4:80:26:bd:70:c8:a3:70:57:79:79:8f:d9:42:d9:02:
        e1:06:99:09:6f:ec:e8:07:77:aa:11:be:fe:72:e3:c7:99:46:
        4b:1d:21:5c:c6:56:a1:34:6d:64:2d:17:f1:75:49:83:6e:99:
        66:78:0b:dd:85:61:b2:a5:cf:6e:5b:df:ee:29:8a:14:db:a7:
        f0:a7:66:41:9b:5a:02:90:66:01:d9:b7:e4:3f:21:f3:27:e0:
        da:f5:a0:e2:97:45:14:79:b9:1a:9b:e9:c4:c2:ff:64:44:9c:
        f3:c7:89:d1:09:cf:b9:3f:55:55:3b:d1:eb:d9:f1:fe:2d:bb:
        ac:a4:68:56:19:63:38:ac:ec:8f:46:10:15:61:12:07:85:7b:
        d4:24:cf:30:bb:86:eb:6d:9e:37:f1:6b:3a:53:3d:ec:85:90:
        a0:88:dd:ef:aa:1b:f8:1f:6d:a6:2e:e9:00:e8:16:fe:25:18:
        11:c8:13:d7:09:36:f3:83:8f:63:fc:6d:fb:51:32:44:a7:ef:
        9b:57:12:53:f0:3d:5c:d8:6f:6b:6b:03:d2:0f:4f:b6:b7:9a:
        19:b8:74:5b:2e:8c:35:59:c4:a0:1d:18:fe:20:8a:a8:12:1f:
        94:44:73:74
-----BEGIN CERTIFICATE-----
MIIDaTCCAlGgAwIBAgIBATANBgkqhkiG9w0BAQsFADASMRAwDgYDVQQDDAdkZXZj
ZXJ0MB4XDTIzMDYwNjA2NTY1M1oXDTI1MDkwODA2NTY1M1owFDESMBAGA1UEAwwJ
bG9jYWxob3N0MIIBIjANBgkqhkiG9w0BAQEFAAOCAQ8AMIIBCgKCAQEAi2qUrTqY
yOaaRvvP7VYXUQXtI7D4ils73fCacRs0UdsbkQ2wmAth42biOptIhp5+aAX545xo
sYocD4tbLm+Jv82+7zO2ccLjyyxtLr+LFO1JfNdu824eEFyXt2nzmsKO80GA/eVW
gpBkV2mRRmCs59PmPmoFlr8gwCoPRGbYTRY3sXc9KOqN7j2OOE9y66jO4B1iTwO0
1nKr+0gUyxKv+NbMBWBf/Ap9t4p0tV4SacQPOsd9eN1V7SJNwk46RzIVHrRJv8hp
PkUDtMKNfJhBtBc8xoOpfKj0gmk7VK89qnvxoY58N9eNPMScl5u4nmzPFPizmlQW
Du0iLde965RQewIDAQABo4HHMIHEMAwGA1UdEwEB/wQCMAAwHQYDVR0OBBYEFDnf
R3Y4Wuw7MZVyp1yJYD6RlZzoME0GA1UdIwRGMESAFNNsyAEcvs40LY+Ue92l9oAG
DKE8oRakFDASMRAwDgYDVQQDDAdkZXZjZXJ0ghRiRVlD4meZeEY0C5Awlqr1nDIx
bDAOBgNVHQ8BAf8EBAMCBaAwEwYDVR0lBAwwCgYIKwYBBQUHAwEwIQYDVR0RBBow
GIIJbG9jYWxob3N0ggsqLmxvY2FsaG9zdDANBgkqhkiG9w0BAQsFAAOCAQEAwNTJ
JUH3kJ+gI2sHZ+UdGs4njRjUgCa9cMijcFd5eY/ZQtkC4QaZCW/s6Ad3qhG+/nLj
x5lGSx0hXMZWoTRtZC0X8XVJg26ZZngL3YVhsqXPblvf7imKFNun8KdmQZtaApBm
Adm35D8h8yfg2vWg4pdFFHm5GpvpxML/ZESc88eJ0QnPuT9VVTvR69nx/i27rKRo
VhljOKzsj0YQFWESB4V71CTPMLuG622eN/FrOlM97IWQoIjd76ob+B9tpi7pAOgW
/iUYEcgT1wk284OPY/xt+1EyRKfvm1cSU/A9XNhva2sD0g9PtreaGbh0Wy6MNVnE
oB0Y/iCKqBIflERzdA==
-----END CERTIFICATE-----
